; Function Attrs: nounwind uwtable
define i32 @pmix_bfrop_store_data_type(ptr noundef %0, ptr noundef %1, i16 noundef zeroext %2) local_unnamed_addr #0 {
  %4 = alloca i16, align 2
  store i16 %2, ptr %4, align 2, !tbaa !131
  %5 = getelementptr inbounds nuw i8, ptr %0, i64 128
  %6 = load i32, ptr %5, align 8, !tbaa !132
  %.not.i = icmp sgt i32 %6, 13
  br i1 %.not.i, label %pmix_pointer_array_get_item.exit, label %pmix_pointer_array_get_item.exit.thread, !prof !135

pmix_pointer_array_get_item.exit:                 ; preds = %3
  %7 = getelementptr inbounds nuw i8, ptr %0, i64 152
  %8 = load ptr, ptr %7, align 8, !tbaa !136
  %9 = getelementptr inbounds nuw i8, ptr %8, i64 104
  %10 = load ptr, ptr %9, align 8, !tbaa !26
  %11 = icmp eq ptr %10, null
  br i1 %11, label %pmix_pointer_array_get_item.exit.thread, label %12

12:                                               ; preds = %pmix_pointer_array_get_item.exit
  %13 = getelementptr inbounds nuw i8, ptr %10, i64 136
  %14 = load ptr, ptr %13, align 8, !tbaa !137
  %15 = call i32 %14(ptr noundef nonnull %0, ptr noundef %1, ptr noundef nonnull %4, i32 noundef 1, i16 noundef zeroext 13) #24
  br label %pmix_pointer_array_get_item.exit.thread

pmix_pointer_array_get_item.exit.thread:          ; preds = %3, %pmix_pointer_array_get_item.exit, %12
  %.0 = phi i32 [ %15, %12 ], [ -16, %pmix_pointer_array_get_item.exit ], [ -16, %3 ]
  ret i32 %.0
}